target datalayout = "e-m:e-p270:32:32-p271:32:32-p272:64:64-i64:64-i128:128-f80:128-n8:16:32:64-S128"
target triple = "x86_64-pc-linux-gnu"

%union._sa_t = type { %struct.sockaddr_in6, [84 x i8] }
%struct.sockaddr_in6 = type { i16, i16, i32, %struct.in6_addr, i32 }
%struct.in6_addr = type { %union.anon }
%union.anon = type { [4 x i32] }
%struct.sockaddr_in = type { i16, i16, %struct.in_addr, [8 x i8] }
%struct.in_addr = type { i32 }
%struct.sockaddr = type { i16, [14 x i8] }

@allowed_clients = internal global ptr null, align 8
@.str.8 = private unnamed_addr constant [48 x i8] c"Wrong IP address '%s' in listen.allowed_clients\00", align 1
@.str.9 = private unnamed_addr constant [31 x i8] c"There are no allowed addresses\00", align 1

; Function Attrs: nounwind uwtable
define hidden void @fcgi_set_allowed_clients(ptr noundef %0) #0 {
  %2 = alloca ptr, align 8
  %3 = alloca ptr, align 8
  %4 = alloca ptr, align 8
  %5 = alloca i32, align 4
  store ptr %0, ptr %2, align 8
  %6 = load ptr, ptr %2, align 8
  %7 = icmp ne ptr %6, null
  br i1 %7, label %8, label %101

8:                                                ; preds = %1
  %9 = load ptr, ptr %2, align 8
  %10 = call noalias ptr @strdup(ptr noundef %9) #13
  store ptr %10, ptr %2, align 8
  %11 = load ptr, ptr %2, align 8
  store ptr %11, ptr %3, align 8
  store i32 0, ptr %5, align 4
  br label %12

12:                                               ; preds = %24, %8
  %13 = load ptr, ptr %3, align 8
  %14 = load i8, ptr %13, align 1
  %15 = icmp ne i8 %14, 0
  br i1 %15, label %16, label %27

16:                                               ; preds = %12
  %17 = load ptr, ptr %3, align 8
  %18 = load i8, ptr %17, align 1
  %19 = sext i8 %18 to i32
  %20 = icmp eq i32 %19, 44
  br i1 %20, label %21, label %24

21:                                               ; preds = %16
  %22 = load i32, ptr %5, align 4
  %23 = add nsw i32 %22, 1
  store i32 %23, ptr %5, align 4
  br label %24

24:                                               ; preds = %21, %16
  %25 = load ptr, ptr %3, align 8
  %26 = getelementptr inbounds i8, ptr %25, i32 1
  store ptr %26, ptr %3, align 8
  br label %12

27:                                               ; preds = %12
  %28 = load ptr, ptr @allowed_clients, align 8
  %29 = icmp ne ptr %28, null
  br i1 %29, label %30, label %32

30:                                               ; preds = %27
  %31 = load ptr, ptr @allowed_clients, align 8
  call void @free(ptr noundef %31) #13
  br label %32

32:                                               ; preds = %30, %27
  %33 = load i32, ptr %5, align 4
  %34 = add nsw i32 %33, 2
  %35 = sext i32 %34 to i64
  %36 = mul i64 112, %35
  %37 = call noalias ptr @malloc(i64 noundef %36) #15
  store ptr %37, ptr @allowed_clients, align 8
  store i32 0, ptr %5, align 4
  %38 = load ptr, ptr %2, align 8
  store ptr %38, ptr %3, align 8
  br label %39

39:                                               ; preds = %88, %32
  %40 = load ptr, ptr %3, align 8
  %41 = icmp ne ptr %40, null
  br i1 %41, label %42, label %90

42:                                               ; preds = %39
  %43 = load ptr, ptr %3, align 8
  %44 = call ptr @strchr(ptr noundef %43, i32 noundef 44) #16
  store ptr %44, ptr %4, align 8
  %45 = load ptr, ptr %4, align 8
  %46 = icmp ne ptr %45, null
  br i1 %46, label %47, label %51

47:                                               ; preds = %42
  %48 = load ptr, ptr %4, align 8
  store i8 0, ptr %48, align 1
  %49 = load ptr, ptr %4, align 8
  %50 = getelementptr inbounds i8, ptr %49, i32 1
  store ptr %50, ptr %4, align 8
  br label %51

51:                                               ; preds = %47, %42
  %52 = load ptr, ptr %3, align 8
  %53 = load ptr, ptr @allowed_clients, align 8
  %54 = load i32, ptr %5, align 4
  %55 = sext i32 %54 to i64
  %56 = getelementptr inbounds %union._sa_t, ptr %53, i64 %55
  %57 = getelementptr inbounds %struct.sockaddr_in, ptr %56, i32 0, i32 2
  %58 = call i32 @inet_pton(i32 noundef 2, ptr noundef %52, ptr noundef %57) #13
  %59 = icmp sgt i32 %58, 0
  br i1 %59, label %60, label %68

60:                                               ; preds = %51
  %61 = load ptr, ptr @allowed_clients, align 8
  %62 = load i32, ptr %5, align 4
  %63 = sext i32 %62 to i64
  %64 = getelementptr inbounds %union._sa_t, ptr %61, i64 %63
  %65 = getelementptr inbounds %struct.sockaddr, ptr %64, i32 0, i32 0
  store i16 2, ptr %65, align 4
  %66 = load i32, ptr %5, align 4
  %67 = add nsw i32 %66, 1
  store i32 %67, ptr %5, align 4
  br label %88

68:                                               ; preds = %51
  %69 = load ptr, ptr %3, align 8
  %70 = load ptr, ptr @allowed_clients, align 8
  %71 = load i32, ptr %5, align 4
  %72 = sext i32 %71 to i64
  %73 = getelementptr inbounds %union._sa_t, ptr %70, i64 %72
  %74 = getelementptr inbounds %struct.sockaddr_in6, ptr %73, i32 0, i32 3
  %75 = call i32 @inet_pton(i32 noundef 10, ptr noundef %69, ptr noundef %74) #13
  %76 = icmp sgt i32 %75, 0
  br i1 %76, label %77, label %85

77:                                               ; preds = %68
  %78 = load ptr, ptr @allowed_clients, align 8
  %79 = load i32, ptr %5, align 4
  %80 = sext i32 %79 to i64
  %81 = getelementptr inbounds %union._sa_t, ptr %78, i64 %80
  %82 = getelementptr inbounds %struct.sockaddr, ptr %81, i32 0, i32 0
  store i16 10, ptr %82, align 4
  %83 = load i32, ptr %5, align 4
  %84 = add nsw i32 %83, 1
  store i32 %84, ptr %5, align 4
  br label %87

85:                                               ; preds = %68
  %86 = load ptr, ptr %3, align 8
  call void (i32, ptr, ...) @fcgi_log(i32 noundef 4, ptr noundef @.str.8, ptr noundef %86)
  br label %87

87:                                               ; preds = %85, %77
  br label %88

88:                                               ; preds = %87, %60
  %89 = load ptr, ptr %4, align 8
  store ptr %89, ptr %3, align 8
  br label %39

90:                                               ; preds = %39
  %91 = load ptr, ptr @allowed_clients, align 8
  %92 = load i32, ptr %5, align 4
  %93 = sext i32 %92 to i64
  %94 = getelementptr inbounds %union._sa_t, ptr %91, i64 %93
  %95 = getelementptr inbounds %struct.sockaddr, ptr %94, i32 0, i32 0
  store i16 0, ptr %95, align 4
  %96 = load ptr, ptr %2, align 8
  call void @free(ptr noundef %96) #13
  %97 = load i32, ptr %5, align 4
  %98 = icmp ne i32 %97, 0
  br i1 %98, label %100, label %99

99:                                               ; preds = %90
  call void (i32, ptr, ...) @fcgi_log(i32 noundef 4, ptr noundef @.str.9)
  br label %100

100:                                              ; preds = %99, %90
  br label %101

101:                                              ; preds = %100, %1
  ret void
}