; Function Attrs: nounwind uwtable
define hidden void @fcgi_set_allowed_clients(ptr noundef readonly %0) local_unnamed_addr #3 {
  %.not = icmp eq ptr %0, null
  br i1 %.not, label %45, label %2

2:                                                ; preds = %1
  %3 = tail call noalias ptr @strdup(ptr noundef nonnull %0) #32
  br label %4

4:                                                ; preds = %8, %2
  %.027 = phi ptr [ %3, %2 ], [ %9, %8 ]
  %.0 = phi i32 [ 0, %2 ], [ %.1, %8 ]
  %5 = load i8, ptr %.027, align 1
  switch i8 %5, label %8 [
    i8 0, label %10
    i8 44, label %6
  ]

6:                                                ; preds = %4
  %7 = add nsw i32 %.0, 1
  br label %8

8:                                                ; preds = %4, %6
  %.1 = phi i32 [ %7, %6 ], [ %.0, %4 ]
  %9 = getelementptr inbounds i8, ptr %.027, i64 1
  br label %4

10:                                               ; preds = %4
  %11 = load ptr, ptr @allowed_clients, align 8
  %.not35 = icmp eq ptr %11, null
  br i1 %.not35, label %13, label %12

12:                                               ; preds = %10
  tail call void @free(ptr noundef nonnull %11) #32
  br label %13

13:                                               ; preds = %12, %10
  %14 = add nsw i32 %.0, 2
  %15 = sext i32 %14 to i64
  %16 = mul nsw i64 %15, 112
  %17 = tail call noalias ptr @malloc(i64 noundef %16) #33
  store ptr %17, ptr @allowed_clients, align 8
  %.not3639 = icmp eq ptr %3, null
  br i1 %.not3639, label %._crit_edge, label %.lr.ph

.lr.ph:                                           ; preds = %13, %40
  %.241 = phi i32 [ %.3, %40 ], [ 0, %13 ]
  %.12840 = phi ptr [ %.026, %40 ], [ %3, %13 ]
  %18 = tail call ptr @strchr(ptr noundef nonnull dereferenceable(1) %.12840, i32 noundef 44) #35
  %.not38 = icmp eq ptr %18, null
  br i1 %.not38, label %21, label %19

19:                                               ; preds = %.lr.ph
  store i8 0, ptr %18, align 1
  %20 = getelementptr inbounds i8, ptr %18, i64 1
  br label %21

21:                                               ; preds = %19, %.lr.ph
  %.026 = phi ptr [ %20, %19 ], [ null, %.lr.ph ]
  %22 = load ptr, ptr @allowed_clients, align 8
  %23 = sext i32 %.241 to i64
  %24 = getelementptr inbounds %union._sa_t, ptr %22, i64 %23, i32 0, i32 2
  %25 = tail call i32 @inet_pton(i32 noundef 2, ptr noundef nonnull %.12840, ptr noundef nonnull %24) #32
  %26 = icmp sgt i32 %25, 0
  %27 = load ptr, ptr @allowed_clients, align 8
  br i1 %26, label %28, label %31

28:                                               ; preds = %21
  %29 = getelementptr inbounds %union._sa_t, ptr %27, i64 %23
  store i16 2, ptr %29, align 4
  %30 = add nsw i32 %.241, 1
  br label %40

31:                                               ; preds = %21
  %32 = getelementptr inbounds %union._sa_t, ptr %27, i64 %23, i32 0, i32 3
  %33 = tail call i32 @inet_pton(i32 noundef 10, ptr noundef nonnull %.12840, ptr noundef nonnull %32) #32
  %34 = icmp sgt i32 %33, 0
  br i1 %34, label %35, label %39

35:                                               ; preds = %31
  %36 = load ptr, ptr @allowed_clients, align 8
  %37 = getelementptr inbounds %union._sa_t, ptr %36, i64 %23
  store i16 10, ptr %37, align 4
  %38 = add nsw i32 %.241, 1
  br label %40

39:                                               ; preds = %31
  tail call void (i32, ptr, ...) @fcgi_log(i32 noundef 4, ptr noundef nonnull @.str.8, ptr noundef nonnull %.12840)
  br label %40

40:                                               ; preds = %35, %39, %28
  %.3 = phi i32 [ %30, %28 ], [ %38, %35 ], [ %.241, %39 ]
  %.not36 = icmp eq ptr %.026, null
  br i1 %.not36, label %._crit_edge.loopexit, label %.lr.ph

._crit_edge.loopexit:                             ; preds = %40
  %.pre = load ptr, ptr @allowed_clients, align 8
  br label %._crit_edge

._crit_edge:                                      ; preds = %._crit_edge.loopexit, %13
  %41 = phi ptr [ %17, %13 ], [ %.pre, %._crit_edge.loopexit ]
  %.2.lcssa = phi i32 [ 0, %13 ], [ %.3, %._crit_edge.loopexit ]
  %42 = sext i32 %.2.lcssa to i64
  %43 = getelementptr inbounds %union._sa_t, ptr %41, i64 %42
  store i16 0, ptr %43, align 4
  tail call void @free(ptr noundef %3) #32
  %.not37 = icmp eq i32 %.2.lcssa, 0
  br i1 %.not37, label %44, label %45

44:                                               ; preds = %._crit_edge
  tail call void (i32, ptr, ...) @fcgi_log(i32 noundef 4, ptr noundef nonnull @.str.9)
  br label %45

45:                                               ; preds = %._crit_edge, %44, %1
  ret void
}